target datalayout = "e-m:e-p270:32:32-p271:32:32-p272:64:64-i64:64-i128:128-f80:128-n8:16:32:64-S128"
target triple = "x86_64-pc-linux-gnu"

; Function Attrs: nounwind uwtable
define dso_local i32 @uv_rwlock_tryrdlock(ptr noundef %0) #0 {
  %2 = alloca i32, align 4
  %3 = alloca ptr, align 8
  %4 = alloca i32, align 4
  %5 = alloca i32, align 4
  store ptr %0, ptr %3, align 8, !tbaa !4
  call void @llvm.lifetime.start.p0(i64 4, ptr %4) #8
  %6 = load ptr, ptr %3, align 8, !tbaa !4
  %7 = call i32 @pthread_rwlock_tryrdlock(ptr noundef %6) #8
  store i32 %7, ptr %4, align 4, !tbaa !8
  %8 = load i32, ptr %4, align 4, !tbaa !8
  %9 = icmp ne i32 %8, 0
  br i1 %9, label %10, label %18

10:                                               ; preds = %1
  %11 = load i32, ptr %4, align 4, !tbaa !8
  %12 = icmp ne i32 %11, 16
  br i1 %12, label %13, label %17

13:                                               ; preds = %10
  %14 = load i32, ptr %4, align 4, !tbaa !8
  %15 = icmp ne i32 %14, 11
  br i1 %15, label %16, label %17

16:                                               ; preds = %13
  call void @abort() #9
  unreachable

17:                                               ; preds = %13, %10
  store i32 -16, ptr %2, align 4
  store i32 1, ptr %5, align 4
  br label %19

18:                                               ; preds = %1
  store i32 0, ptr %2, align 4
  store i32 1, ptr %5, align 4
  br label %19

19:                                               ; preds = %18, %17
  call void @llvm.lifetime.end.p0(i64 4, ptr %4) #8
  %20 = load i32, ptr %2, align 4
  ret i32 %20
}