; Function Attrs: nounwind uwtable
define dso_local range(i32 -16, 1) i32 @uv_rwlock_tryrdlock(ptr noundef %0) local_unnamed_addr #0 {
  %2 = tail call i32 @pthread_rwlock_tryrdlock(ptr noundef %0) #10
  switch i32 %2, label %3 [
    i32 0, label %4
    i32 16, label %.fold.split
    i32 11, label %.fold.split
  ]

3:                                                ; preds = %1
  tail call void @abort() #11
  unreachable

.fold.split:                                      ; preds = %1, %1
  br label %4

4:                                                ; preds = %1, %.fold.split
  %.0 = phi i32 [ %2, %1 ], [ -16, %.fold.split ]
  ret i32 %.0
}